target datalayout = "e-m:e-p270:32:32-p271:32:32-p272:64:64-i64:64-i128:128-f80:128-n8:16:32:64-S128"
target triple = "x86_64-pc-linux-gnu"

%struct.FT_ListRec_ = type { ptr, ptr }
%struct.FT_CharMapRec_ = type { ptr, i32, i16, i16 }
%struct.T42_FaceRec_ = type { %struct.FT_FaceRec_, %struct.T1_FontRec_, ptr, ptr, ptr, i64, ptr, [2 x %struct.FT_CharMapRec_], [2 x ptr], %struct.PS_UnicodesRec_ }
%struct.FT_FaceRec_ = type { i64, i64, i64, i64, i64, ptr, ptr, i32, ptr, i32, ptr, %struct.FT_Generic_, %struct.FT_BBox_, i16, i16, i16, i16, i16, i16, i16, i16, ptr, ptr, ptr, ptr, ptr, ptr, %struct.FT_ListRec_, %struct.FT_Generic_, ptr, ptr }
%struct.FT_BBox_ = type { i64, i64, i64, i64 }
%struct.FT_Generic_ = type { ptr, ptr }
%struct.T1_FontRec_ = type { %struct.PS_FontInfoRec_, %struct.PS_FontExtraRec_, %struct.PS_PrivateRec_, ptr, i32, %struct.T1_EncodingRecRec_, ptr, ptr, ptr, i32, ptr, ptr, ptr, i32, ptr, ptr, ptr, i8, i8, %struct.FT_Matrix_, %struct.FT_Vector_, %struct.FT_BBox_, i64, i64 }
%struct.PS_FontInfoRec_ = type { ptr, ptr, ptr, ptr, ptr, i64, i8, i16, i16 }
%struct.PS_FontExtraRec_ = type { i16 }
%struct.PS_PrivateRec_ = type { i32, i32, i8, i8, i8, i8, [14 x i16], [10 x i16], [14 x i16], [10 x i16], i64, i32, i32, [1 x i16], [1 x i16], i8, i8, i8, i8, [13 x i16], [13 x i16], i64, i64, i64, [2 x i16] }
%struct.T1_EncodingRecRec_ = type { i32, i32, i32, ptr, ptr }
%struct.FT_Matrix_ = type { i64, i64, i64, i64 }
%struct.FT_Vector_ = type { i64, i64 }
%struct.PS_UnicodesRec_ = type { %struct.FT_CMapRec_, i32, ptr }
%struct.FT_CMapRec_ = type { %struct.FT_CharMapRec_, ptr }
%struct.FT_SizeRec_ = type { ptr, %struct.FT_Generic_, %struct.FT_Size_Metrics_, ptr }
%struct.FT_Size_Metrics_ = type { i16, i16, i64, i64, i64, i64, i64, i64 }
%struct.T42_SizeRec_ = type { %struct.FT_SizeRec_, ptr }

; Function Attrs: nounwind uwtable
define internal void @T42_Size_Done(ptr noundef %0) #0 {
  %2 = alloca ptr, align 8
  %3 = alloca ptr, align 8
  %4 = alloca ptr, align 8
  %5 = alloca ptr, align 8
  %6 = alloca ptr, align 8
  store ptr %0, ptr %2, align 8, !tbaa !156
  call void @llvm.lifetime.start.p0(i64 8, ptr %3) #7
  %7 = load ptr, ptr %2, align 8, !tbaa !156
  store ptr %7, ptr %3, align 8, !tbaa !157
  call void @llvm.lifetime.start.p0(i64 8, ptr %4) #7
  %8 = load ptr, ptr %2, align 8, !tbaa !156
  %9 = getelementptr inbounds nuw %struct.FT_SizeRec_, ptr %8, i32 0, i32 0
  %10 = load ptr, ptr %9, align 8, !tbaa !159
  store ptr %10, ptr %4, align 8, !tbaa !27
  call void @llvm.lifetime.start.p0(i64 8, ptr %5) #7
  %11 = load ptr, ptr %4, align 8, !tbaa !27
  store ptr %11, ptr %5, align 8, !tbaa !33
  call void @llvm.lifetime.start.p0(i64 8, ptr %6) #7
  %12 = load ptr, ptr %5, align 8, !tbaa !33
  %13 = getelementptr inbounds nuw %struct.T42_FaceRec_, ptr %12, i32 0, i32 6
  %14 = load ptr, ptr %13, align 8, !tbaa !39
  %15 = getelementptr inbounds nuw %struct.FT_FaceRec_, ptr %14, i32 0, i32 27
  %16 = load ptr, ptr %3, align 8, !tbaa !157
  %17 = getelementptr inbounds nuw %struct.T42_SizeRec_, ptr %16, i32 0, i32 1
  %18 = load ptr, ptr %17, align 8, !tbaa !163
  %19 = call ptr @FT_List_Find(ptr noundef %15, ptr noundef %18)
  store ptr %19, ptr %6, align 8, !tbaa !165
  %20 = load ptr, ptr %6, align 8, !tbaa !165
  %21 = icmp ne ptr %20, null
  br i1 %21, label %22, label %29

22:                                               ; preds = %1
  %23 = load ptr, ptr %3, align 8, !tbaa !157
  %24 = getelementptr inbounds nuw %struct.T42_SizeRec_, ptr %23, i32 0, i32 1
  %25 = load ptr, ptr %24, align 8, !tbaa !163
  %26 = call i32 @FT_Done_Size(ptr noundef %25)
  %27 = load ptr, ptr %3, align 8, !tbaa !157
  %28 = getelementptr inbounds nuw %struct.T42_SizeRec_, ptr %27, i32 0, i32 1
  store ptr null, ptr %28, align 8, !tbaa !163
  br label %29

29:                                               ; preds = %22, %1
  call void @llvm.lifetime.end.p0(i64 8, ptr %6) #7
  call void @llvm.lifetime.end.p0(i64 8, ptr %5) #7
  call void @llvm.lifetime.end.p0(i64 8, ptr %4) #7
  call void @llvm.lifetime.end.p0(i64 8, ptr %3) #7
  ret void
}