; Function Attrs: nounwind uwtable
define internal void @T42_Size_Done(ptr noundef captures(none) %0) #0 {
  %2 = load ptr, ptr %0, align 8, !tbaa !195
  %3 = getelementptr inbounds nuw i8, ptr %2, i64 808
  %4 = load ptr, ptr %3, align 8, !tbaa !19
  %5 = getelementptr inbounds nuw i8, ptr %4, i64 200
  %6 = getelementptr inbounds nuw i8, ptr %0, i64 88
  %7 = load ptr, ptr %6, align 8, !tbaa !200
  %8 = tail call ptr @FT_List_Find(ptr noundef nonnull %5, ptr noundef %7) #13
  %.not = icmp eq ptr %8, null
  br i1 %.not, label %12, label %9

9:                                                ; preds = %1
  %10 = load ptr, ptr %6, align 8, !tbaa !200
  %11 = tail call i32 @FT_Done_Size(ptr noundef %10) #13
  store ptr null, ptr %6, align 8, !tbaa !200
  br label %12

12:                                               ; preds = %9, %1
  ret void
}